ccopy_reg
_reconstructor
p0
(cstrictdoc.backend.sdoc.models.document
SDocDocument
p1
c__builtin__
object
p2
Ntp3
Rp4
(dp5
Vmid
p6
NsVtitle
p7
VMIL-STD-498 SUM (Software User Manual)
p8
sVconfig
p9
g0
(cstrictdoc.backend.sdoc.models.document_config
DocumentConfig
p10
g2
Ntp11
Rp12
(dp13
Vparent
p14
g4
sVversion
p15
NsVdate
p16
NsVuid
p17
NsVclassification
p18
NsVrequirement_prefix
p19
NsVroot
p20
NsVenable_mid
p21
NsVmarkup
p22
NsVauto_levels
p23
I01
sVlayout
p24
NsVrequirement_style
p25
NsVview_style_tag
p26
NsVrequirement_in_toc
p27
NsVnode_in_toc_tag
p28
NsVdefault_view
p29
NsVng_auto_levels_specified
p30
I00
sVng_line_start
p31
I21
sVng_col_start
p32
I186
sVcustom_metadata
p33
NsbsVview
p34
g0
(cstrictdoc.backend.sdoc.models.document_view
DocumentView
p35
g2
Ntp36
Rp37
(dp38
g14
g4
sVviews
p39
(lp40
g0
(cstrictdoc.backend.sdoc.models.document_view
DefaultViewElement
p41
g2
Ntp42
Rp43
(dp44
g14
g37
sVview_id
p45
VNOT_RELEVANT
p46
sVtags
p47
(lp48
sVhidden_tags
p49
(lp50
sVname
p51
Nsbasg31
I21
sg32
I1145
sbsVgrammar
p52
g0
(cstrictdoc.backend.sdoc.models.document_grammar
DocumentGrammar
p53
g2
Ntp54
Rp55
(dp56
g14
g4
sVelements
p57
(lp58
g0
(cstrictdoc.backend.sdoc.models.grammar_element
GrammarElement
p59
g2
Ntp60
Rp61
(dp62
g14
g55
sVtag
p63
VSECTION
p64
sVproperty_is_composite
p65
I01
sVproperty_prefix
p66
NsVproperty_view_style
p67
NsVproperty_view_style_lower
p68
NsVfields
p69
(lp70
g0
(cstrictdoc.backend.sdoc.models.grammar_element
GrammarElementFieldString
p71
g2
Ntp72
Rp73
(dp74
g7
VUID
p75
sVhuman_title
p76
NsVgef_type
p77
VString
p78
sVrequired
p79
I00
sg6
g0
(cstrictdoc.helpers.mid
MID
p80
c__builtin__
unicode
p81
Ve5347420df6d42428eb8d85add13a2c8
p82
tp83
Rp84
sg14
Nsbag0
(g71
g2
Ntp85
Rp86
(dp87
g7
VLEVEL
p88
sg76
Nsg77
g78
sg79
I00
sg6
g0
(g80
g81
V9dceb290b1774f83a66e057ebad04e63
p89
tp90
Rp91
sg14
Nsbag0
(g71
g2
Ntp92
Rp93
(dp94
g7
VPREFIX
p95
sg76
Nsg77
g78
sg79
I00
sg6
g0
(g80
g81
V118eaae21c7047a28ff4753e63c5f166
p96
tp97
Rp98
sg14
Nsbag0
(g71
g2
Ntp99
Rp100
(dp101
g7
VTITLE
p102
sg76
Nsg77
g78
sg79
I01
sg6
g0
(g80
g81
Ve0486aa536fc4502b09ab54c5a671be4
p103
tp104
Rp105
sg14
NsbasVrelations
p106
(lp107
sVfields_map
p108
ccollections
OrderedDict
p109
(tRp110
g75
g73
sg88
g86
sg95
g93
sg102
g100
ssVfield_titles
p111
(lp112
g75
ag88
ag95
ag102
asVcontent_field
p113
(V
p114
I-1
tp115
sV_multiline_field_index
p116
I4
sg6
g0
(g80
g81
V1fd3150fc5194c878a1308ad0f12e930
p117
tp118
Rp119
sg31
Nsg32
Nsbag0
(g59
g2
Ntp120
Rp121
(dp122
g14
g55
sg63
VTEXT
p123
sg65
Nsg66
Nsg67
Nsg68
Nsg69
(lp124
g0
(g71
g2
Ntp125
Rp126
(dp127
g7
g75
sg76
Nsg77
g78
sg79
I00
sg6
g0
(g80
g81
Vddc3ff8b284846e0a37fbdb0fbe166f5
p128
tp129
Rp130
sg14
Nsbag0
(g71
g2
Ntp131
Rp132
(dp133
g7
VSTATEMENT
p134
sg76
Nsg77
g78
sg79
I01
sg6
g0
(g80
g81
V954e9323a25b4b05acb0af0527c5e2cf
p135
tp136
Rp137
sg14
Nsbasg106
(lp138
sg108
g109
(tRp139
g75
g126
sg134
g132
ssg111
(lp140
g75
ag134
asg113
(g134
I1
tp141
sg116
I1
sg6
g0
(g80
g81
V7e79de1d8d424ef9842491d8f8c59c0a
p142
tp143
Rp144
sg31
Nsg32
Nsbag0
(g59
g2
Ntp145
Rp146
(dp147
g14
g55
sg63
VREQUIREMENT
p148
sg65
Nsg66
Nsg67
Nsg68
Nsg69
(lp149
g0
(g71
g2
Ntp150
Rp151
(dp152
g7
g75
sg76
Nsg77
g78
sg79
I00
sg6
g0
(g80
g81
V75873b8deac7450e966666ca5283d907
p153
tp154
Rp155
sg14
Nsbag0
(g71
g2
Ntp156
Rp157
(dp158
g7
g88
sg76
Nsg77
g78
sg79
I00
sg6
g0
(g80
g81
V9c9ee7a22afa46efb098e0304d9570af
p159
tp160
Rp161
sg14
Nsbag0
(g71
g2
Ntp162
Rp163
(dp164
g7
VSTATUS
p165
sg76
Nsg77
g78
sg79
I00
sg6
g0
(g80
g81
Vcd83cd7daa694dce83ace059f18beb93
p166
tp167
Rp168
sg14
Nsbag0
(g71
g2
Ntp169
Rp170
(dp171
g7
VTAGS
p172
sg76
Nsg77
g78
sg79
I00
sg6
g0
(g80
g81
V4512d2f667d34bd4af869ba45b11bbb3
p173
tp174
Rp175
sg14
Nsbag0
(g71
g2
Ntp176
Rp177
(dp178
g7
g102
sg76
Nsg77
g78
sg79
I00
sg6
g0
(g80
g81
V7f5f11a781b7487683781231a36dac9d
p179
tp180
Rp181
sg14
Nsbag0
(g71
g2
Ntp182
Rp183
(dp184
g7
g134
sg76
Nsg77
g78
sg79
I00
sg6
g0
(g80
g81
V2fc1c88ad5a14b14a8b7a3d094eedc45
p185
tp186
Rp187
sg14
Nsbag0
(g71
g2
Ntp188
Rp189
(dp190
g7
VRATIONALE
p191
sg76
Nsg77
g78
sg79
I00
sg6
g0
(g80
g81
Vbbcc8caebb864586be48c1c8d9917da8
p192
tp193
Rp194
sg14
Nsbag0
(g71
g2
Ntp195
Rp196
(dp197
g7
VCOMMENT
p198
sg76
Nsg77
g78
sg79
I00
sg6
g0
(g80
g81
V6f889f5be727460892544199e42ebb59
p199
tp200
Rp201
sg14
Nsbasg106
(lp202
g0
(cstrictdoc.backend.sdoc.models.grammar_element
GrammarElementRelationParent
p203
g2
Ntp204
Rp205
(dp206
g14
g146
sVrelation_type
p207
VParent
p208
sVrelation_role
p209
Nsg6
g0
(g80
g81
V3850794beded424c8b5c0632f872982c
p210
tp211
Rp212
sbag0
(cstrictdoc.backend.sdoc.models.grammar_element
GrammarElementRelationFile
p213
g2
Ntp214
Rp215
(dp216
g14
g146
sg207
VFile
p217
sg209
Nsg6
g0
(g80
g81
V31cea7032e9a4fd38fd9d60731477a1a
p218
tp219
Rp220
sbasg108
g109
(tRp221
g75
g151
sg88
g157
sg165
g163
sg172
g170
sg102
g177
sg134
g183
sg191
g189
sg198
g196
ssg111
(lp222
g75
ag88
ag165
ag172
ag102
ag134
ag191
ag198
asg113
(g134
I5
tp223
sg116
I5
sg6
g0
(g80
g81
V5577231c4f8a4338949bfc7531dc8ff5
p224
tp225
Rp226
sg31
Nsg32
NsbasVregistered_elements
p227
c__builtin__
set
p228
((lp229
g148
ag123
ag64
atp230
Rp231
sVelements_by_type
p232
(dp233
g64
g61
sg123
g121
sg148
g146
ssVimport_from_file
p234
NsVis_default
p235
I01
sg31
Nsg32
NsbsVsection_contents
p236
(lp237
sV_tx_position
p238
I0
sV_tx_position_end
p239
I57
sV_tx_filename
p240
V/projects/doorstop_std-498/mil-std-498-strictdoc/SUM.sdoc
p241
sV_tx_metamodel
p242
NsV_tx_model_params
p243
NsV_tx_parser
p244
NsVreserved_title
p245
g8
sVis_bundle_document
p246
I00
sVfragments_from_files
p247
(lp248
sVng_level
p249
I0
sVng_has_requirements
p250
I00
sVmeta
p251
NsVreserved_mid
p252
g0
(g80
g81
V79e81d198f124caaa74d3de3ab9adddd
p253
tp254
Rp255
sVmid_permanent
p256
I00
sVincluded_documents
p257
(lp258
sVcontext
p259
g0
(cstrictdoc.backend.sdoc.models.document
SDocDocumentContext
p260
g2
Ntp261
Rp262
(dp263
Vtitle_number_string
p264
NsbsVng_including_document_reference
p265
g0
(cstrictdoc.backend.sdoc.document_reference
DocumentReference
p266
g2
Ntp267
Rp268
(dp269
V_document
p270
NsbsVng_including_document_from_file
p271
NsVng_whitelisted
p272
I01
sVsearch_index
p273
g0
(cstrictdoc.backend.sdoc.models.document
SDocDocumentSearchIndex
p274
g2
Ntp275
Rp276
(dp277
Vdocument_index
p278
ccollections
defaultdict
p279
(g228
tp280
Rp281
sVmap_nodes_by_mid
p282
(dp283
sbsVautogen
p284
I00
sV_tx_attrs
p285
NsV_tx_peg_rule
p286
Nsb.