ccopy_reg
_reconstructor
p0
(cstrictdoc.core.file_dependency_manager
FileDependencyManager
p1
c__builtin__
object
p2
Ntp3
Rp4
(dp5
Vpath_to_cache_dir
p6
V/projects/doorstop_std-498/output/strictdoc/html/_cache/0.14.0
p7
sVpath_to_cache
p8
V/projects/doorstop_std-498/output/strictdoc/html/_cache/0.14.0/dependencies
p9
sVdependencies_now
p10
(dp11
V/projects/doorstop_std-498/mil-std-498-strictdoc/COM.sdoc
p12
c__builtin__
set
p13
((lp14
V/projects/doorstop_std-498/output/strictdoc/html/html/mil-std-498-strictdoc/COM.html
p15
atp16
Rp17
sV/projects/doorstop_std-498/mil-std-498-strictdoc/CPM.sdoc
p18
g13
((lp19
V/projects/doorstop_std-498/output/strictdoc/html/html/mil-std-498-strictdoc/CPM.html
p20
atp21
Rp22
sV/projects/doorstop_std-498/mil-std-498-strictdoc/DBDD.sdoc
p23
g13
((lp24
V/projects/doorstop_std-498/output/strictdoc/html/html/mil-std-498-strictdoc/DBDD.html
p25
atp26
Rp27
sV/projects/doorstop_std-498/mil-std-498-strictdoc/FSM.sdoc
p28
g13
((lp29
V/projects/doorstop_std-498/output/strictdoc/html/html/mil-std-498-strictdoc/FSM.html
p30
atp31
Rp32
sV/projects/doorstop_std-498/mil-std-498-strictdoc/IDD.sdoc
p33
g13
((lp34
V/projects/doorstop_std-498/output/strictdoc/html/html/mil-std-498-strictdoc/IDD.html
p35
atp36
Rp37
sV/projects/doorstop_std-498/mil-std-498-strictdoc/IRS.sdoc
p38
g13
((lp39
V/projects/doorstop_std-498/output/strictdoc/html/html/mil-std-498-strictdoc/IRS.html
p40
atp41
Rp42
sV/projects/doorstop_std-498/mil-std-498-strictdoc/OCD.sdoc
p43
g13
((lp44
V/projects/doorstop_std-498/output/strictdoc/html/html/mil-std-498-strictdoc/OCD.html
p45
atp46
Rp47
sV/projects/doorstop_std-498/mil-std-498-strictdoc/SCOM.sdoc
p48
g13
((lp49
V/projects/doorstop_std-498/output/strictdoc/html/html/mil-std-498-strictdoc/SCOM.html
p50
atp51
Rp52
sV/projects/doorstop_std-498/mil-std-498-strictdoc/SDD.sdoc
p53
g13
((lp54
V/projects/doorstop_std-498/output/strictdoc/html/html/mil-std-498-strictdoc/SDD.html
p55
atp56
Rp57
sV/projects/doorstop_std-498/mil-std-498-strictdoc/SDP.sdoc
p58
g13
((lp59
V/projects/doorstop_std-498/output/strictdoc/html/html/mil-std-498-strictdoc/SDP.html
p60
atp61
Rp62
sV/projects/doorstop_std-498/mil-std-498-strictdoc/SIOM.sdoc
p63
g13
((lp64
V/projects/doorstop_std-498/output/strictdoc/html/html/mil-std-498-strictdoc/SIOM.html
p65
atp66
Rp67
sV/projects/doorstop_std-498/mil-std-498-strictdoc/SIP.sdoc
p68
g13
((lp69
V/projects/doorstop_std-498/output/strictdoc/html/html/mil-std-498-strictdoc/SIP.html
p70
atp71
Rp72
sV/projects/doorstop_std-498/mil-std-498-strictdoc/SPS.sdoc
p73
g13
((lp74
V/projects/doorstop_std-498/output/strictdoc/html/html/mil-std-498-strictdoc/SPS.html
p75
atp76
Rp77
sV/projects/doorstop_std-498/mil-std-498-strictdoc/SRS.sdoc
p78
g13
((lp79
V/projects/doorstop_std-498/output/strictdoc/html/html/mil-std-498-strictdoc/SRS.html
p80
atp81
Rp82
sV/projects/doorstop_std-498/mil-std-498-strictdoc/SSDD.sdoc
p83
g13
((lp84
V/projects/doorstop_std-498/output/strictdoc/html/html/mil-std-498-strictdoc/SSDD.html
p85
atp86
Rp87
sV/projects/doorstop_std-498/mil-std-498-strictdoc/SSS.sdoc
p88
g13
((lp89
V/projects/doorstop_std-498/output/strictdoc/html/html/mil-std-498-strictdoc/SSS.html
p90
atp91
Rp92
sV/projects/doorstop_std-498/mil-std-498-strictdoc/STD.sdoc
p93
g13
((lp94
V/projects/doorstop_std-498/output/strictdoc/html/html/mil-std-498-strictdoc/STD.html
p95
atp96
Rp97
sV/projects/doorstop_std-498/mil-std-498-strictdoc/STP.sdoc
p98
g13
((lp99
V/projects/doorstop_std-498/output/strictdoc/html/html/mil-std-498-strictdoc/STP.html
p100
atp101
Rp102
sV/projects/doorstop_std-498/mil-std-498-strictdoc/STR.sdoc
p103
g13
((lp104
V/projects/doorstop_std-498/output/strictdoc/html/html/mil-std-498-strictdoc/STR.html
p105
atp106
Rp107
sV/projects/doorstop_std-498/mil-std-498-strictdoc/STRP.sdoc
p108
g13
((lp109
V/projects/doorstop_std-498/output/strictdoc/html/html/mil-std-498-strictdoc/STRP.html
p110
atp111
Rp112
sV/projects/doorstop_std-498/mil-std-498-strictdoc/SUM.sdoc
p113
g13
((lp114
V/projects/doorstop_std-498/output/strictdoc/html/html/mil-std-498-strictdoc/SUM.html
p115
atp116
Rp117
sV/projects/doorstop_std-498/mil-std-498-strictdoc/SVD.sdoc
p118
g13
((lp119
V/projects/doorstop_std-498/output/strictdoc/html/html/mil-std-498-strictdoc/SVD.html
p120
atp121
Rp122
ssVdependencies_prev
p123
(dp124
g12
g13
((lp125
g15
atp126
Rp127
sg18
g13
((lp128
g20
atp129
Rp130
sg23
g13
((lp131
g25
atp132
Rp133
sg28
g13
((lp134
g30
atp135
Rp136
sg33
g13
((lp137
g35
atp138
Rp139
sg38
g13
((lp140
g40
atp141
Rp142
sg43
g13
((lp143
g45
atp144
Rp145
sg48
g13
((lp146
g50
atp147
Rp148
sg53
g13
((lp149
g55
atp150
Rp151
sg58
g13
((lp152
g60
atp153
Rp154
sg63
g13
((lp155
g65
atp156
Rp157
sg68
g13
((lp158
g70
atp159
Rp160
sg73
g13
((lp161
g75
atp162
Rp163
sg78
g13
((lp164
g80
atp165
Rp166
sg83
g13
((lp167
g85
atp168
Rp169
sg88
g13
((lp170
g90
atp171
Rp172
sg93
g13
((lp173
g95
atp174
Rp175
sg98
g13
((lp176
g100
atp177
Rp178
sg103
g13
((lp179
g105
atp180
Rp181
sg108
g13
((lp182
g110
atp183
Rp184
sg113
g13
((lp185
g115
atp186
Rp187
sg118
g13
((lp188
g120
atp189
Rp190
ssVdependencies_must_renegerate
p191
g13
((lp192
g115
ag100
ag80
ag15
ag85
ag95
ag70
ag60
ag40
ag120
ag75
ag55
ag90
ag105
ag20
ag30
ag65
ag50
ag45
ag110
ag25
ag35
atp193
Rp194
sb.